target datalayout = "e-m:e-p270:32:32-p271:32:32-p272:64:64-i64:64-i128:128-f80:128-n8:16:32:64-S128"
target triple = "x86_64-pc-linux-gnu"

%struct.H5L_trav_le_t = type { ptr, ptr }

@.str = private unnamed_addr constant [100 x i8] c"generated/home/dtcxzyw/WorkSpace/Projects/compilers/llvm-opt-benchmark/bench/hdf5/hdf5/src/H5Lint.c\00", align 1
@H5E_LINK_g = external global i64, align 8
@H5E_CANTGET_g = external global i64, align 8
@__func__.H5L_exists_tolerant = private unnamed_addr constant [20 x i8] c"H5L_exists_tolerant\00", align 1
@.str.20 = private unnamed_addr constant [31 x i8] c"can't determine if link exists\00", align 1

; Function Attrs: nounwind uwtable
define i32 @H5L_exists_tolerant(ptr noundef %0, ptr noundef %1, ptr noundef %2) #0 {
  %4 = alloca ptr, align 8
  %5 = alloca ptr, align 8
  %6 = alloca ptr, align 8
  %7 = alloca %struct.H5L_trav_le_t, align 8
  %8 = alloca ptr, align 8
  %9 = alloca ptr, align 8
  %10 = alloca ptr, align 8
  %11 = alloca i32, align 4
  %12 = alloca i8, align 1
  store ptr %0, ptr %4, align 8
  store ptr %1, ptr %5, align 8
  store ptr %2, ptr %6, align 8
  store ptr null, ptr %9, align 8
  store i32 0, ptr %11, align 4
  store i8 0, ptr %12, align 1
  %13 = load ptr, ptr %5, align 8
  %14 = call noalias ptr @H5MM_strdup(ptr noundef %13)
  store ptr %14, ptr %9, align 8
  store ptr %14, ptr %10, align 8
  br label %15

15:                                               ; preds = %20, %3
  %16 = load ptr, ptr %10, align 8
  %17 = load i8, ptr %16, align 1
  %18 = sext i8 %17 to i32
  %19 = icmp eq i32 47, %18
  br i1 %19, label %20, label %23

20:                                               ; preds = %15
  %21 = load ptr, ptr %10, align 8
  %22 = getelementptr inbounds i8, ptr %21, i32 1
  store ptr %22, ptr %10, align 8
  br label %15

23:                                               ; preds = %15
  %24 = load ptr, ptr %10, align 8
  %25 = load i8, ptr %24, align 1
  %26 = sext i8 %25 to i32
  %27 = icmp eq i32 0, %26
  br i1 %27, label %28, label %30

28:                                               ; preds = %23
  %29 = load ptr, ptr %6, align 8
  store i8 1, ptr %29, align 1
  br label %74

30:                                               ; preds = %23
  %31 = load ptr, ptr %6, align 8
  %32 = getelementptr inbounds %struct.H5L_trav_le_t, ptr %7, i32 0, i32 1
  store ptr %31, ptr %32, align 8
  %33 = load ptr, ptr %10, align 8
  %34 = call ptr @strchr(ptr noundef %33, i32 noundef 47) #8
  %35 = getelementptr inbounds %struct.H5L_trav_le_t, ptr %7, i32 0, i32 0
  store ptr %34, ptr %35, align 8
  %36 = icmp eq ptr null, %34
  br i1 %36, label %37, label %38

37:                                               ; preds = %30
  store ptr @H5L__exists_final_cb, ptr %8, align 8
  br label %52

38:                                               ; preds = %30
  br label %39

39:                                               ; preds = %45, %38
  %40 = getelementptr inbounds %struct.H5L_trav_le_t, ptr %7, i32 0, i32 0
  %41 = load ptr, ptr %40, align 8
  store i8 0, ptr %41, align 1
  %42 = getelementptr inbounds %struct.H5L_trav_le_t, ptr %7, i32 0, i32 0
  %43 = load ptr, ptr %42, align 8
  %44 = getelementptr inbounds i8, ptr %43, i32 1
  store ptr %44, ptr %42, align 8
  br label %45

45:                                               ; preds = %39
  %46 = getelementptr inbounds %struct.H5L_trav_le_t, ptr %7, i32 0, i32 0
  %47 = load ptr, ptr %46, align 8
  %48 = load i8, ptr %47, align 1
  %49 = sext i8 %48 to i32
  %50 = icmp eq i32 47, %49
  br i1 %50, label %39, label %51

51:                                               ; preds = %45
  store ptr @H5L__exists_inter_cb, ptr %8, align 8
  br label %52

52:                                               ; preds = %51, %37
  %53 = load ptr, ptr %4, align 8
  %54 = load ptr, ptr %10, align 8
  %55 = load ptr, ptr %8, align 8
  %56 = call i32 @H5G_traverse(ptr noundef %53, ptr noundef %54, i32 noundef 5, ptr noundef %55, ptr noundef %7)
  %57 = icmp slt i32 %56, 0
  br i1 %57, label %58, label %73

58:                                               ; preds = %52
  br label %59

59:                                               ; preds = %58
  br label %60

60:                                               ; preds = %59
  br label %61

61:                                               ; preds = %60
  %62 = load i64, ptr @H5E_LINK_g, align 8
  %63 = load i64, ptr @H5E_CANTGET_g, align 8
  %64 = call i32 (ptr, ptr, i32, i64, i64, ptr, ...) @H5E_printf_stack(ptr noundef @.str, ptr noundef @__func__.H5L_exists_tolerant, i32 noundef 1712, i64 noundef %62, i64 noundef %63, ptr noundef @.str.20)
  br label %65

65:                                               ; preds = %61
  store i8 1, ptr %12, align 1
  %66 = load i8, ptr %12, align 1
  %67 = trunc i8 %66 to i1
  %68 = zext i1 %67 to i8
  store i8 %68, ptr %12, align 1
  br label %69

69:                                               ; preds = %65
  br label %70

70:                                               ; preds = %69
  store i32 -1, ptr %11, align 4
  br label %75

71:                                               ; No predecessors!
  br label %72

72:                                               ; preds = %71
  br label %73

73:                                               ; preds = %72, %52
  br label %74

74:                                               ; preds = %73, %28
  br label %75

75:                                               ; preds = %74, %70
  %76 = load ptr, ptr %9, align 8
  %77 = call ptr @H5MM_xfree(ptr noundef %76)
  %78 = load i32, ptr %11, align 4
  ret i32 %78
}