; Function Attrs: nounwind uwtable
define range(i32 -1, 1) i32 @H5L_exists_tolerant(ptr noundef %0, ptr noundef %1, ptr noundef %2) local_unnamed_addr #0 {
  %4 = alloca %struct.H5L_trav_le_t, align 8
  %5 = tail call noalias ptr @H5MM_strdup(ptr noundef %1) #10
  br label %6

6:                                                ; preds = %8, %3
  %.012 = phi ptr [ %5, %3 ], [ %9, %8 ]
  %7 = load i8, ptr %.012, align 1
  switch i8 %7, label %11 [
    i8 47, label %8
    i8 0, label %10
  ]

8:                                                ; preds = %6
  %9 = getelementptr inbounds i8, ptr %.012, i64 1
  br label %6

10:                                               ; preds = %6
  store i8 1, ptr %2, align 1
  br label %25

11:                                               ; preds = %6
  %12 = getelementptr inbounds i8, ptr %4, i64 8
  store ptr %2, ptr %12, align 8
  %13 = tail call ptr @strchr(ptr noundef nonnull dereferenceable(1) %.012, i32 noundef 47) #12
  store ptr %13, ptr %4, align 8
  %14 = icmp eq ptr %13, null
  br i1 %14, label %.loopexit, label %.preheader

.preheader:                                       ; preds = %11, %.preheader
  %15 = phi ptr [ %16, %.preheader ], [ %13, %11 ]
  store i8 0, ptr %15, align 1
  %16 = getelementptr inbounds i8, ptr %15, i64 1
  store ptr %16, ptr %4, align 8
  %17 = load i8, ptr %16, align 1
  %18 = icmp eq i8 %17, 47
  br i1 %18, label %.preheader, label %.loopexit

.loopexit:                                        ; preds = %.preheader, %11
  %.013 = phi ptr [ @H5L__exists_final_cb, %11 ], [ @H5L__exists_inter_cb, %.preheader ]
  %19 = call i32 @H5G_traverse(ptr noundef %0, ptr noundef nonnull %.012, i32 noundef 5, ptr noundef nonnull %.013, ptr noundef nonnull %4) #10
  %20 = icmp slt i32 %19, 0
  br i1 %20, label %21, label %25

21:                                               ; preds = %.loopexit
  %22 = load i64, ptr @H5E_LINK_g, align 8
  %23 = load i64, ptr @H5E_CANTGET_g, align 8
  %24 = call i32 (ptr, ptr, i32, i64, i64, ptr, ...) @H5E_printf_stack(ptr noundef nonnull @.str, ptr noundef nonnull @__func__.H5L_exists_tolerant, i32 noundef 1712, i64 noundef %22, i64 noundef %23, ptr noundef nonnull @.str.20) #10
  br label %25

25:                                               ; preds = %10, %.loopexit, %21
  %.0 = phi i32 [ 0, %10 ], [ -1, %21 ], [ 0, %.loopexit ]
  %26 = call ptr @H5MM_xfree(ptr noundef %5) #10
  ret i32 %.0
}